; Function Attrs: mustprogress nofree norecurse nosync nounwind memory(readwrite, inaccessiblemem: none) uwtable
define hidden void @_ZN6hermes2vm7HadesGC29updateWeakReferencesForOldGenEv(ptr nocapture noundef nonnull align 8 dereferenceable(8152) %this) local_unnamed_addr #17 align 2 {
entry:
  %_M_start.i = getelementptr inbounds i8, ptr %this, i64 376
  %0 = load ptr, ptr %_M_start.i, align 8, !noalias !138
  %_M_finish.i = getelementptr inbounds i8, ptr %this, i64 408
  %1 = load ptr, ptr %_M_finish.i, align 8, !noalias !141
  %cmp.i.i.not14 = icmp eq ptr %0, %1
  br i1 %cmp.i.i.not14, label %for.end, label %for.body.lr.ph

for.body.lr.ph:                                   ; preds = %entry
  %_M_node5.i.i = getelementptr inbounds i8, ptr %this, i64 400
  %2 = load ptr, ptr %_M_node5.i.i, align 8, !noalias !138
  %_M_last4.i.i = getelementptr inbounds i8, ptr %this, i64 392
  %3 = load ptr, ptr %_M_last4.i.i, align 8, !noalias !138
  %firstFreeWeak_.i = getelementptr inbounds i8, ptr %this, i64 440
  br label %for.body

for.body:                                         ; preds = %for.body.lr.ph, %_ZNSt15_Deque_iteratorIN6hermes2vm11WeakRefSlotERS2_PS2_EppEv.exit
  %__begin2.sroa.11.017 = phi ptr [ %2, %for.body.lr.ph ], [ %__begin2.sroa.11.1, %_ZNSt15_Deque_iteratorIN6hermes2vm11WeakRefSlotERS2_PS2_EppEv.exit ]
  %__begin2.sroa.8.016 = phi ptr [ %3, %for.body.lr.ph ], [ %__begin2.sroa.8.1, %_ZNSt15_Deque_iteratorIN6hermes2vm11WeakRefSlotERS2_PS2_EppEv.exit ]
  %__begin2.sroa.0.015 = phi ptr [ %0, %for.body.lr.ph ], [ %__begin2.sroa.0.1, %_ZNSt15_Deque_iteratorIN6hermes2vm11WeakRefSlotERS2_PS2_EppEv.exit ]
  %state_.i = getelementptr inbounds i8, ptr %__begin2.sroa.0.015, i64 8
  %4 = load i32, ptr %state_.i, align 8
  switch i32 %4, label %for.inc [
    i32 0, label %sw.bb5
    i32 1, label %sw.bb4
  ]

sw.bb4:                                           ; preds = %for.body
  store i32 0, ptr %state_.i, align 8
  br label %for.inc

sw.bb5:                                           ; preds = %for.body
  %5 = load ptr, ptr %firstFreeWeak_.i, align 8
  store i32 2, ptr %state_.i, align 8
  store ptr %5, ptr %__begin2.sroa.0.015, align 8
  store ptr %__begin2.sroa.0.015, ptr %firstFreeWeak_.i, align 8
  br label %for.inc

for.inc:                                          ; preds = %for.body, %sw.bb4, %sw.bb5
  %incdec.ptr.i = getelementptr inbounds i8, ptr %__begin2.sroa.0.015, i64 16
  %cmp.i = icmp eq ptr %incdec.ptr.i, %__begin2.sroa.8.016
  br i1 %cmp.i, label %if.then.i, label %_ZNSt15_Deque_iteratorIN6hermes2vm11WeakRefSlotERS2_PS2_EppEv.exit

if.then.i:                                        ; preds = %for.inc
  %add.ptr.i = getelementptr inbounds i8, ptr %__begin2.sroa.11.017, i64 8
  %6 = load ptr, ptr %add.ptr.i, align 8
  %add.ptr.i.i = getelementptr inbounds i8, ptr %6, i64 512
  br label %_ZNSt15_Deque_iteratorIN6hermes2vm11WeakRefSlotERS2_PS2_EppEv.exit

_ZNSt15_Deque_iteratorIN6hermes2vm11WeakRefSlotERS2_PS2_EppEv.exit: ; preds = %for.inc, %if.then.i
  %__begin2.sroa.0.1 = phi ptr [ %6, %if.then.i ], [ %incdec.ptr.i, %for.inc ]
  %__begin2.sroa.8.1 = phi ptr [ %add.ptr.i.i, %if.then.i ], [ %__begin2.sroa.8.016, %for.inc ]
  %__begin2.sroa.11.1 = phi ptr [ %add.ptr.i, %if.then.i ], [ %__begin2.sroa.11.017, %for.inc ]
  %cmp.i.i.not = icmp eq ptr %__begin2.sroa.0.1, %1
  br i1 %cmp.i.i.not, label %for.end, label %for.body

for.end:                                          ; preds = %_ZNSt15_Deque_iteratorIN6hermes2vm11WeakRefSlotERS2_PS2_EppEv.exit, %entry
  ret void
}